; Function Attrs: mustprogress nounwind uwtable
define internal void @_ZN5arrow8internal6FnOnceIFvRKNS_10FutureImplEEE6FnImplINS_6FutureINS0_5EmptyEE21WrapStatusyOnComplete8CallbackIZZNS_4util12_GLOBAL__N_122AsyncTaskSchedulerImpl12DoSubmitTaskESt10unique_ptrINSD_18AsyncTaskScheduler4TaskESt14default_deleteISI_EEENUlvE_clEvEUlRKNS_6StatusEE_EEED0Ev(ptr noundef nonnull align 8 dereferenceable(24) %this) unnamed_addr #2 align 2 {
entry:
  store ptr getelementptr inbounds ({ [5 x ptr] }, ptr @_ZTVN5arrow8internal6FnOnceIFvRKNS_10FutureImplEEE6FnImplINS_6FutureINS0_5EmptyEE21WrapStatusyOnComplete8CallbackIZZNS_4util12_GLOBAL__N_122AsyncTaskSchedulerImpl12DoSubmitTaskESt10unique_ptrINSD_18AsyncTaskScheduler4TaskESt14default_deleteISI_EEENUlvE_clEvEUlRKNS_6StatusEE_EEEE, i64 0, i32 0, i64 2), ptr %this, align 8
  %0 = getelementptr inbounds i8, ptr %this, i64 16
  %1 = load ptr, ptr %0, align 8
  %cmp.not.i.i.i.i = icmp eq ptr %1, null
  br i1 %cmp.not.i.i.i.i, label %_ZN5arrow8internal6FnOnceIFvRKNS_10FutureImplEEE6FnImplINS_6FutureINS0_5EmptyEE21WrapStatusyOnComplete8CallbackIZZNS_4util12_GLOBAL__N_122AsyncTaskSchedulerImpl12DoSubmitTaskESt10unique_ptrINSD_18AsyncTaskScheduler4TaskESt14default_deleteISI_EEENUlvE_clEvEUlRKNS_6StatusEE_EEED2Ev.exit, label %_ZNKSt14default_deleteIN5arrow4util18AsyncTaskScheduler4TaskEEclEPS3_.exit.i.i.i.i

_ZNKSt14default_deleteIN5arrow4util18AsyncTaskScheduler4TaskEEclEPS3_.exit.i.i.i.i: ; preds = %entry
  %vtable.i.i.i.i.i = load ptr, ptr %1, align 8
  %vfn.i.i.i.i.i = getelementptr inbounds i8, ptr %vtable.i.i.i.i.i, i64 8
  %2 = load ptr, ptr %vfn.i.i.i.i.i, align 8
  tail call void %2(ptr noundef nonnull align 8 dereferenceable(16) %1) #20
  br label %_ZN5arrow8internal6FnOnceIFvRKNS_10FutureImplEEE6FnImplINS_6FutureINS0_5EmptyEE21WrapStatusyOnComplete8CallbackIZZNS_4util12_GLOBAL__N_122AsyncTaskSchedulerImpl12DoSubmitTaskESt10unique_ptrINSD_18AsyncTaskScheduler4TaskESt14default_deleteISI_EEENUlvE_clEvEUlRKNS_6StatusEE_EEED2Ev.exit

_ZN5arrow8internal6FnOnceIFvRKNS_10FutureImplEEE6FnImplINS_6FutureINS0_5EmptyEE21WrapStatusyOnComplete8CallbackIZZNS_4util12_GLOBAL__N_122AsyncTaskSchedulerImpl12DoSubmitTaskESt10unique_ptrINSD_18AsyncTaskScheduler4TaskESt14default_deleteISI_EEENUlvE_clEvEUlRKNS_6StatusEE_EEED2Ev.exit: ; preds = %entry, %_ZNKSt14default_deleteIN5arrow4util18AsyncTaskScheduler4TaskEEclEPS3_.exit.i.i.i.i
  tail call void @_ZdlPv(ptr noundef nonnull %this) #22
  ret void
}